; Function Attrs: nounwind sspstrong uwtable
define dso_local range(i32 0, -2147483648) i32 @qemu_fdt_setprop_string(ptr noundef %fdt, ptr noundef %node_path, ptr noundef %property, ptr noundef %string) local_unnamed_addr #0 {
entry:
  %call.i = tail call i32 @fdt_path_offset(ptr noundef %fdt, ptr noundef %node_path) #12
  %cmp.i = icmp slt i32 %call.i, 0
  br i1 %cmp.i, label %if.then.i, label %findnode_nofail.exit

if.then.i:                                        ; preds = %entry
  %call1.i = tail call ptr @fdt_strerror(i32 noundef %call.i) #12
  tail call void (ptr, ...) @error_report(ptr noundef nonnull @.str.39, ptr noundef nonnull @__func__.findnode_nofail, ptr noundef %node_path, ptr noundef %call1.i) #12
  tail call void @exit(i32 noundef 1) #13
  unreachable

findnode_nofail.exit:                             ; preds = %entry
  %call1 = tail call i64 @strlen(ptr noundef nonnull dereferenceable(1) %string) #14
  %0 = trunc i64 %call1 to i32
  %conv = add i32 %0, 1
  %call2 = tail call i32 @fdt_setprop(ptr noundef %fdt, i32 noundef %call.i, ptr noundef %property, ptr noundef nonnull %string, i32 noundef %conv) #12
  %cmp = icmp slt i32 %call2, 0
  br i1 %cmp, label %if.then, label %if.end

if.then:                                          ; preds = %findnode_nofail.exit
  %call4 = tail call ptr @fdt_strerror(i32 noundef %call2) #12
  tail call void (ptr, ...) @error_report(ptr noundef nonnull @.str.15, ptr noundef nonnull @__func__.qemu_fdt_setprop_string, ptr noundef %node_path, ptr noundef %property, ptr noundef nonnull %string, ptr noundef %call4) #12
  tail call void @exit(i32 noundef 1) #13
  unreachable

if.end:                                           ; preds = %findnode_nofail.exit
  ret i32 %call2
}